target datalayout = "e-m:e-p270:32:32-p271:32:32-p272:64:64-i64:64-i128:128-f80:128-n8:16:32:64-S128"
target triple = "x86_64-pc-linux-gnu"

@.str.152 = private unnamed_addr constant [25 x i8] c"AES - Invalid key length\00", align 1
@.str.153 = private unnamed_addr constant [32 x i8] c"AES - Invalid data input length\00", align 1
@.str.154 = private unnamed_addr constant [25 x i8] c"AES - Invalid input data\00", align 1
@.str.155 = private unnamed_addr constant [22 x i8] c"ARIA - Bad input data\00", align 1
@.str.156 = private unnamed_addr constant [33 x i8] c"ARIA - Invalid data input length\00", align 1
@.str.157 = private unnamed_addr constant [55 x i8] c"ASN1 - Out of data when parsing an ASN1 data structure\00", align 1
@.str.158 = private unnamed_addr constant [43 x i8] c"ASN1 - ASN1 tag was of an unexpected value\00", align 1
@.str.159 = private unnamed_addr constant [67 x i8] c"ASN1 - Error when trying to determine the length or invalid length\00", align 1
@.str.160 = private unnamed_addr constant [50 x i8] c"ASN1 - Actual length differs from expected length\00", align 1
@.str.161 = private unnamed_addr constant [23 x i8] c"ASN1 - Data is invalid\00", align 1
@.str.162 = private unnamed_addr constant [32 x i8] c"ASN1 - Memory allocation failed\00", align 1
@.str.163 = private unnamed_addr constant [58 x i8] c"ASN1 - Buffer too small when writing ASN.1 data structure\00", align 1
@.str.164 = private unnamed_addr constant [33 x i8] c"BASE64 - Output buffer too small\00", align 1
@.str.165 = private unnamed_addr constant [36 x i8] c"BASE64 - Invalid character in input\00", align 1
@.str.166 = private unnamed_addr constant [67 x i8] c"BIGNUM - An error occurred while reading from or writing to a file\00", align 1
@.str.167 = private unnamed_addr constant [42 x i8] c"BIGNUM - Bad input parameters to function\00", align 1
@.str.168 = private unnamed_addr constant [59 x i8] c"BIGNUM - There is an invalid character in the digit string\00", align 1
@.str.169 = private unnamed_addr constant [45 x i8] c"BIGNUM - The buffer is too small to write to\00", align 1
@.str.170 = private unnamed_addr constant [70 x i8] c"BIGNUM - The input arguments are negative or result in illegal output\00", align 1
@.str.171 = private unnamed_addr constant [71 x i8] c"BIGNUM - The input argument for division is zero, which is not allowed\00", align 1
@.str.172 = private unnamed_addr constant [48 x i8] c"BIGNUM - The input arguments are not acceptable\00", align 1
@.str.173 = private unnamed_addr constant [34 x i8] c"BIGNUM - Memory allocation failed\00", align 1
@.str.174 = private unnamed_addr constant [26 x i8] c"CAMELLIA - Bad input data\00", align 1
@.str.175 = private unnamed_addr constant [37 x i8] c"CAMELLIA - Invalid data input length\00", align 1
@.str.176 = private unnamed_addr constant [43 x i8] c"CCM - Bad input parameters to the function\00", align 1
@.str.177 = private unnamed_addr constant [38 x i8] c"CCM - Authenticated decryption failed\00", align 1
@.str.178 = private unnamed_addr constant [38 x i8] c"CHACHA20 - Invalid input parameter(s)\00", align 1
@.str.179 = private unnamed_addr constant [75 x i8] c"CHACHAPOLY - The requested operation is not permitted in the current state\00", align 1
@.str.180 = private unnamed_addr constant [69 x i8] c"CHACHAPOLY - Authenticated decryption failed: data was not authentic\00", align 1
@.str.181 = private unnamed_addr constant [37 x i8] c"CTR_DRBG - The entropy source failed\00", align 1
@.str.182 = private unnamed_addr constant [57 x i8] c"CTR_DRBG - The requested random buffer length is too big\00", align 1
@.str.183 = private unnamed_addr constant [62 x i8] c"CTR_DRBG - The input (entropy + additional data) is too large\00", align 1
@.str.184 = private unnamed_addr constant [39 x i8] c"CTR_DRBG - Read or write error in file\00", align 1
@.str.185 = private unnamed_addr constant [43 x i8] c"DES - The data input has an invalid length\00", align 1
@.str.186 = private unnamed_addr constant [42 x i8] c"ENTROPY - Critical entropy source failure\00", align 1
@.str.187 = private unnamed_addr constant [39 x i8] c"ENTROPY - No more sources can be added\00", align 1
@.str.188 = private unnamed_addr constant [45 x i8] c"ENTROPY - No sources have been added to poll\00", align 1
@.str.189 = private unnamed_addr constant [52 x i8] c"ENTROPY - No strong sources have been added to poll\00", align 1
@.str.190 = private unnamed_addr constant [35 x i8] c"ENTROPY - Read/write error in file\00", align 1
@.str.191 = private unnamed_addr constant [22 x i8] c"ERROR - Generic error\00", align 1
@.str.192 = private unnamed_addr constant [37 x i8] c"ERROR - This is a bug in the library\00", align 1
@.str.193 = private unnamed_addr constant [39 x i8] c"PLATFORM - Hardware accelerator failed\00", align 1
@.str.194 = private unnamed_addr constant [66 x i8] c"PLATFORM - The requested feature is not supported by the platform\00", align 1
@.str.195 = private unnamed_addr constant [38 x i8] c"GCM - Authenticated decryption failed\00", align 1
@.str.196 = private unnamed_addr constant [39 x i8] c"GCM - Bad input parameters to function\00", align 1
@.str.197 = private unnamed_addr constant [36 x i8] c"GCM - An output buffer is too small\00", align 1
@.str.198 = private unnamed_addr constant [40 x i8] c"HKDF - Bad input parameters to function\00", align 1
@.str.199 = private unnamed_addr constant [53 x i8] c"HMAC_DRBG - Too many random requested in single call\00", align 1
@.str.200 = private unnamed_addr constant [51 x i8] c"HMAC_DRBG - Input too large (Entropy + additional)\00", align 1
@.str.201 = private unnamed_addr constant [37 x i8] c"HMAC_DRBG - Read/write error in file\00", align 1
@.str.202 = private unnamed_addr constant [38 x i8] c"HMAC_DRBG - The entropy source failed\00", align 1
@.str.203 = private unnamed_addr constant [49 x i8] c"LMS - Bad data has been input to an LMS function\00", align 1
@.str.204 = private unnamed_addr constant [61 x i8] c"LMS - Specified LMS key has utilised all of its private keys\00", align 1
@.str.205 = private unnamed_addr constant [40 x i8] c"LMS - LMS signature verification failed\00", align 1
@.str.206 = private unnamed_addr constant [53 x i8] c"LMS - LMS failed to allocate space for a private key\00", align 1
@.str.207 = private unnamed_addr constant [64 x i8] c"LMS - Input/output buffer is too small to contain requited data\00", align 1
@.str.208 = private unnamed_addr constant [30 x i8] c"NET - Failed to open a socket\00", align 1
@.str.209 = private unnamed_addr constant [55 x i8] c"NET - The connection to the given server / port failed\00", align 1
@.str.210 = private unnamed_addr constant [35 x i8] c"NET - Binding of the socket failed\00", align 1
@.str.211 = private unnamed_addr constant [37 x i8] c"NET - Could not listen on the socket\00", align 1
@.str.212 = private unnamed_addr constant [47 x i8] c"NET - Could not accept the incoming connection\00", align 1
@.str.213 = private unnamed_addr constant [49 x i8] c"NET - Reading information from the socket failed\00", align 1
@.str.214 = private unnamed_addr constant [52 x i8] c"NET - Sending information through the socket failed\00", align 1
@.str.215 = private unnamed_addr constant [35 x i8] c"NET - Connection was reset by peer\00", align 1
@.str.216 = private unnamed_addr constant [57 x i8] c"NET - Failed to get an IP address for the given hostname\00", align 1
@.str.217 = private unnamed_addr constant [43 x i8] c"NET - Buffer is too small to hold the data\00", align 1
@.str.218 = private unnamed_addr constant [57 x i8] c"NET - The context is invalid, eg because it was free()ed\00", align 1
@.str.219 = private unnamed_addr constant [37 x i8] c"NET - Polling the net context failed\00", align 1
@.str.220 = private unnamed_addr constant [20 x i8] c"NET - Input invalid\00", align 1
@.str.221 = private unnamed_addr constant [23 x i8] c"OID - OID is not found\00", align 1
@.str.222 = private unnamed_addr constant [33 x i8] c"OID - output buffer is too small\00", align 1
@.str.223 = private unnamed_addr constant [38 x i8] c"POLY1305 - Invalid input parameter(s)\00", align 1
@.str.224 = private unnamed_addr constant [38 x i8] c"SHA1 - SHA-1 input data was malformed\00", align 1
@.str.225 = private unnamed_addr constant [42 x i8] c"SHA256 - SHA-256 input data was malformed\00", align 1
@.str.226 = private unnamed_addr constant [38 x i8] c"SHA3 - SHA-3 input data was malformed\00", align 1
@.str.227 = private unnamed_addr constant [42 x i8] c"SHA512 - SHA-512 input data was malformed\00", align 1

; Function Attrs: nounwind uwtable
define hidden ptr @mbedtls_low_level_strerr(i32 noundef %0) #0 {
  %2 = alloca ptr, align 8
  %3 = alloca i32, align 4
  %4 = alloca i32, align 4
  %5 = alloca i32, align 4
  store i32 %0, ptr %3, align 4, !tbaa !3
  call void @llvm.lifetime.start.p0(i64 4, ptr %4) #5
  %6 = load i32, ptr %3, align 4, !tbaa !3
  %7 = icmp slt i32 %6, 0
  br i1 %7, label %8, label %11

8:                                                ; preds = %1
  %9 = load i32, ptr %3, align 4, !tbaa !3
  %10 = sub nsw i32 0, %9
  store i32 %10, ptr %3, align 4, !tbaa !3
  br label %11

11:                                               ; preds = %8, %1
  %12 = load i32, ptr %3, align 4, !tbaa !3
  %13 = and i32 %12, -65409
  store i32 %13, ptr %4, align 4, !tbaa !3
  %14 = load i32, ptr %4, align 4, !tbaa !3
  switch i32 %14, label %91 [
    i32 32, label %15
    i32 34, label %16
    i32 33, label %17
    i32 92, label %18
    i32 94, label %19
    i32 96, label %20
    i32 98, label %21
    i32 100, label %22
    i32 102, label %23
    i32 104, label %24
    i32 106, label %25
    i32 108, label %26
    i32 42, label %27
    i32 44, label %28
    i32 2, label %29
    i32 4, label %30
    i32 6, label %31
    i32 8, label %32
    i32 10, label %33
    i32 12, label %34
    i32 14, label %35
    i32 16, label %36
    i32 36, label %37
    i32 38, label %38
    i32 13, label %39
    i32 15, label %40
    i32 81, label %41
    i32 84, label %42
    i32 86, label %43
    i32 52, label %44
    i32 54, label %45
    i32 56, label %46
    i32 58, label %47
    i32 50, label %48
    i32 60, label %49
    i32 62, label %50
    i32 64, label %51
    i32 61, label %52
    i32 63, label %53
    i32 1, label %54
    i32 110, label %55
    i32 112, label %56
    i32 114, label %57
    i32 18, label %58
    i32 20, label %59
    i32 22, label %60
    i32 24448, label %61
    i32 3, label %62
    i32 5, label %63
    i32 7, label %64
    i32 9, label %65
    i32 17, label %66
    i32 19, label %67
    i32 21, label %68
    i32 23, label %69
    i32 25, label %70
    i32 66, label %71
    i32 68, label %72
    i32 70, label %73
    i32 72, label %74
    i32 74, label %75
    i32 76, label %76
    i32 78, label %77
    i32 80, label %78
    i32 82, label %79
    i32 67, label %80
    i32 69, label %81
    i32 71, label %82
    i32 73, label %83
    i32 46, label %84
    i32 11, label %85
    i32 87, label %86
    i32 115, label %87
    i32 116, label %88
    i32 118, label %89
    i32 117, label %90
  ]

15:                                               ; preds = %11
  store ptr @.str.152, ptr %2, align 8
  store i32 1, ptr %5, align 4
  br label %93

16:                                               ; preds = %11
  store ptr @.str.153, ptr %2, align 8
  store i32 1, ptr %5, align 4
  br label %93

17:                                               ; preds = %11
  store ptr @.str.154, ptr %2, align 8
  store i32 1, ptr %5, align 4
  br label %93

18:                                               ; preds = %11
  store ptr @.str.155, ptr %2, align 8
  store i32 1, ptr %5, align 4
  br label %93

19:                                               ; preds = %11
  store ptr @.str.156, ptr %2, align 8
  store i32 1, ptr %5, align 4
  br label %93

20:                                               ; preds = %11
  store ptr @.str.157, ptr %2, align 8
  store i32 1, ptr %5, align 4
  br label %93

21:                                               ; preds = %11
  store ptr @.str.158, ptr %2, align 8
  store i32 1, ptr %5, align 4
  br label %93

22:                                               ; preds = %11
  store ptr @.str.159, ptr %2, align 8
  store i32 1, ptr %5, align 4
  br label %93

23:                                               ; preds = %11
  store ptr @.str.160, ptr %2, align 8
  store i32 1, ptr %5, align 4
  br label %93

24:                                               ; preds = %11
  store ptr @.str.161, ptr %2, align 8
  store i32 1, ptr %5, align 4
  br label %93

25:                                               ; preds = %11
  store ptr @.str.162, ptr %2, align 8
  store i32 1, ptr %5, align 4
  br label %93

26:                                               ; preds = %11
  store ptr @.str.163, ptr %2, align 8
  store i32 1, ptr %5, align 4
  br label %93

27:                                               ; preds = %11
  store ptr @.str.164, ptr %2, align 8
  store i32 1, ptr %5, align 4
  br label %93

28:                                               ; preds = %11
  store ptr @.str.165, ptr %2, align 8
  store i32 1, ptr %5, align 4
  br label %93

29:                                               ; preds = %11
  store ptr @.str.166, ptr %2, align 8
  store i32 1, ptr %5, align 4
  br label %93

30:                                               ; preds = %11
  store ptr @.str.167, ptr %2, align 8
  store i32 1, ptr %5, align 4
  br label %93

31:                                               ; preds = %11
  store ptr @.str.168, ptr %2, align 8
  store i32 1, ptr %5, align 4
  br label %93

32:                                               ; preds = %11
  store ptr @.str.169, ptr %2, align 8
  store i32 1, ptr %5, align 4
  br label %93

33:                                               ; preds = %11
  store ptr @.str.170, ptr %2, align 8
  store i32 1, ptr %5, align 4
  br label %93

34:                                               ; preds = %11
  store ptr @.str.171, ptr %2, align 8
  store i32 1, ptr %5, align 4
  br label %93

35:                                               ; preds = %11
  store ptr @.str.172, ptr %2, align 8
  store i32 1, ptr %5, align 4
  br label %93

36:                                               ; preds = %11
  store ptr @.str.173, ptr %2, align 8
  store i32 1, ptr %5, align 4
  br label %93

37:                                               ; preds = %11
  store ptr @.str.174, ptr %2, align 8
  store i32 1, ptr %5, align 4
  br label %93

38:                                               ; preds = %11
  store ptr @.str.175, ptr %2, align 8
  store i32 1, ptr %5, align 4
  br label %93

39:                                               ; preds = %11
  store ptr @.str.176, ptr %2, align 8
  store i32 1, ptr %5, align 4
  br label %93

40:                                               ; preds = %11
  store ptr @.str.177, ptr %2, align 8
  store i32 1, ptr %5, align 4
  br label %93

41:                                               ; preds = %11
  store ptr @.str.178, ptr %2, align 8
  store i32 1, ptr %5, align 4
  br label %93

42:                                               ; preds = %11
  store ptr @.str.179, ptr %2, align 8
  store i32 1, ptr %5, align 4
  br label %93

43:                                               ; preds = %11
  store ptr @.str.180, ptr %2, align 8
  store i32 1, ptr %5, align 4
  br label %93

44:                                               ; preds = %11
  store ptr @.str.181, ptr %2, align 8
  store i32 1, ptr %5, align 4
  br label %93

45:                                               ; preds = %11
  store ptr @.str.182, ptr %2, align 8
  store i32 1, ptr %5, align 4
  br label %93

46:                                               ; preds = %11
  store ptr @.str.183, ptr %2, align 8
  store i32 1, ptr %5, align 4
  br label %93

47:                                               ; preds = %11
  store ptr @.str.184, ptr %2, align 8
  store i32 1, ptr %5, align 4
  br label %93

48:                                               ; preds = %11
  store ptr @.str.185, ptr %2, align 8
  store i32 1, ptr %5, align 4
  br label %93

49:                                               ; preds = %11
  store ptr @.str.186, ptr %2, align 8
  store i32 1, ptr %5, align 4
  br label %93

50:                                               ; preds = %11
  store ptr @.str.187, ptr %2, align 8
  store i32 1, ptr %5, align 4
  br label %93

51:                                               ; preds = %11
  store ptr @.str.188, ptr %2, align 8
  store i32 1, ptr %5, align 4
  br label %93

52:                                               ; preds = %11
  store ptr @.str.189, ptr %2, align 8
  store i32 1, ptr %5, align 4
  br label %93

53:                                               ; preds = %11
  store ptr @.str.190, ptr %2, align 8
  store i32 1, ptr %5, align 4
  br label %93

54:                                               ; preds = %11
  store ptr @.str.191, ptr %2, align 8
  store i32 1, ptr %5, align 4
  br label %93

55:                                               ; preds = %11
  store ptr @.str.192, ptr %2, align 8
  store i32 1, ptr %5, align 4
  br label %93

56:                                               ; preds = %11
  store ptr @.str.193, ptr %2, align 8
  store i32 1, ptr %5, align 4
  br label %93

57:                                               ; preds = %11
  store ptr @.str.194, ptr %2, align 8
  store i32 1, ptr %5, align 4
  br label %93

58:                                               ; preds = %11
  store ptr @.str.195, ptr %2, align 8
  store i32 1, ptr %5, align 4
  br label %93

59:                                               ; preds = %11
  store ptr @.str.196, ptr %2, align 8
  store i32 1, ptr %5, align 4
  br label %93

60:                                               ; preds = %11
  store ptr @.str.197, ptr %2, align 8
  store i32 1, ptr %5, align 4
  br label %93

61:                                               ; preds = %11
  store ptr @.str.198, ptr %2, align 8
  store i32 1, ptr %5, align 4
  br label %93

62:                                               ; preds = %11
  store ptr @.str.199, ptr %2, align 8
  store i32 1, ptr %5, align 4
  br label %93

63:                                               ; preds = %11
  store ptr @.str.200, ptr %2, align 8
  store i32 1, ptr %5, align 4
  br label %93

64:                                               ; preds = %11
  store ptr @.str.201, ptr %2, align 8
  store i32 1, ptr %5, align 4
  br label %93

65:                                               ; preds = %11
  store ptr @.str.202, ptr %2, align 8
  store i32 1, ptr %5, align 4
  br label %93

66:                                               ; preds = %11
  store ptr @.str.203, ptr %2, align 8
  store i32 1, ptr %5, align 4
  br label %93

67:                                               ; preds = %11
  store ptr @.str.204, ptr %2, align 8
  store i32 1, ptr %5, align 4
  br label %93

68:                                               ; preds = %11
  store ptr @.str.205, ptr %2, align 8
  store i32 1, ptr %5, align 4
  br label %93

69:                                               ; preds = %11
  store ptr @.str.206, ptr %2, align 8
  store i32 1, ptr %5, align 4
  br label %93

70:                                               ; preds = %11
  store ptr @.str.207, ptr %2, align 8
  store i32 1, ptr %5, align 4
  br label %93

71:                                               ; preds = %11
  store ptr @.str.208, ptr %2, align 8
  store i32 1, ptr %5, align 4
  br label %93

72:                                               ; preds = %11
  store ptr @.str.209, ptr %2, align 8
  store i32 1, ptr %5, align 4
  br label %93

73:                                               ; preds = %11
  store ptr @.str.210, ptr %2, align 8
  store i32 1, ptr %5, align 4
  br label %93

74:                                               ; preds = %11
  store ptr @.str.211, ptr %2, align 8
  store i32 1, ptr %5, align 4
  br label %93

75:                                               ; preds = %11
  store ptr @.str.212, ptr %2, align 8
  store i32 1, ptr %5, align 4
  br label %93

76:                                               ; preds = %11
  store ptr @.str.213, ptr %2, align 8
  store i32 1, ptr %5, align 4
  br label %93

77:                                               ; preds = %11
  store ptr @.str.214, ptr %2, align 8
  store i32 1, ptr %5, align 4
  br label %93

78:                                               ; preds = %11
  store ptr @.str.215, ptr %2, align 8
  store i32 1, ptr %5, align 4
  br label %93

79:                                               ; preds = %11
  store ptr @.str.216, ptr %2, align 8
  store i32 1, ptr %5, align 4
  br label %93

80:                                               ; preds = %11
  store ptr @.str.217, ptr %2, align 8
  store i32 1, ptr %5, align 4
  br label %93

81:                                               ; preds = %11
  store ptr @.str.218, ptr %2, align 8
  store i32 1, ptr %5, align 4
  br label %93

82:                                               ; preds = %11
  store ptr @.str.219, ptr %2, align 8
  store i32 1, ptr %5, align 4
  br label %93

83:                                               ; preds = %11
  store ptr @.str.220, ptr %2, align 8
  store i32 1, ptr %5, align 4
  br label %93

84:                                               ; preds = %11
  store ptr @.str.221, ptr %2, align 8
  store i32 1, ptr %5, align 4
  br label %93

85:                                               ; preds = %11
  store ptr @.str.222, ptr %2, align 8
  store i32 1, ptr %5, align 4
  br label %93

86:                                               ; preds = %11
  store ptr @.str.223, ptr %2, align 8
  store i32 1, ptr %5, align 4
  br label %93

87:                                               ; preds = %11
  store ptr @.str.224, ptr %2, align 8
  store i32 1, ptr %5, align 4
  br label %93

88:                                               ; preds = %11
  store ptr @.str.225, ptr %2, align 8
  store i32 1, ptr %5, align 4
  br label %93

89:                                               ; preds = %11
  store ptr @.str.226, ptr %2, align 8
  store i32 1, ptr %5, align 4
  br label %93

90:                                               ; preds = %11
  store ptr @.str.227, ptr %2, align 8
  store i32 1, ptr %5, align 4
  br label %93

91:                                               ; preds = %11
  br label %92

92:                                               ; preds = %91
  store ptr null, ptr %2, align 8
  store i32 1, ptr %5, align 4
  br label %93

93:                                               ; preds = %92, %90, %89, %88, %87, %86, %85, %84, %83, %82, %81, %80, %79, %78, %77, %76, %75, %74, %73, %72, %71, %70, %69, %68, %67, %66, %65, %64, %63, %62, %61, %60, %59, %58, %57, %56, %55, %54, %53, %52, %51, %50, %49, %48, %47, %46, %45, %44, %43, %42, %41, %40, %39, %38, %37, %36, %35, %34, %33, %32, %31, %30, %29, %28, %27, %26, %25, %24, %23, %22, %21, %20, %19, %18, %17, %16, %15
  call void @llvm.lifetime.end.p0(i64 4, ptr %4) #5
  %94 = load ptr, ptr %2, align 8
  ret ptr %94
}