; Function Attrs: mustprogress nofree norecurse nosync nounwind willreturn memory(none) uwtable
define hidden noundef ptr @mbedtls_low_level_strerr(i32 noundef %0) local_unnamed_addr #0 {
  %spec.select = tail call i32 @llvm.abs.i32(i32 %0, i1 true)
  %2 = and i32 %spec.select, 2147418239
  %switch.tableidx = add nsw i32 %2, -1
  %3 = icmp ult i32 %switch.tableidx, 118
  br i1 %3, label %switch.lookup, label %5

switch.lookup:                                    ; preds = %1
  %4 = zext nneg i32 %switch.tableidx to i64
  %switch.gep = getelementptr inbounds nuw [118 x ptr], ptr @switch.table.mbedtls_low_level_strerr, i64 0, i64 %4
  %switch.load = load ptr, ptr %switch.gep, align 8
  br label %5

5:                                                ; preds = %1, %switch.lookup
  %.0 = phi ptr [ %switch.load, %switch.lookup ], [ null, %1 ]
  ret ptr %.0
}